(dp0
S'density'
p1
(dp2
(S'A1'
p3
S'PV'
p4
tp5
(lp6
F375.2
aF7109.639999999999
aF9907.295999999995
aF27993.600000000006
aF19849.455000000005
aF5991.119999999997
asS'nrn_density'
p7
(lp8
F53600.0
aF204300.00000000003
aF193200.0
aF324000.0
aF251100.0
aF157000.0
as(g3
S'I'
p9
tp10
(lp11
F53600.0
aF24516.0
aF15455.999999999993
aF51840.00000000001
aF42687.00000000001
aF14129.999999999995
as(g3
S'E'
p12
tp13
(lp14
F0.0
aF179784.0
aF177744.0
aF272160.0
aF208413.0
aF142870.0
as(g3
S'nonVIP'
p15
tp16
(lp17
F48240.0
aF6055.452
aF1530.1439999999993
aF3317.7600000000007
aF3628.395000000001
aF2727.0899999999992
as(g3
S'VIP'
p18
tp19
(lp20
F2787.2
aF8507.052
aF1421.9519999999993
aF4043.5200000000004
aF2561.2200000000003
aF904.3199999999997
as(g3
S'SOM'
p21
tp22
(lp23
F2144.0
aF2843.856
aF2612.063999999999
aF16536.960000000003
aF16605.243000000002
aF4493.339999999998
ass.